; ModuleID = 'source-C-CXX/25/124.cpp'
source_filename = "source-C-CXX/25/124.cpp"
target datalayout = "e-m:e-p270:32:32-p271:32:32-p272:64:64-i64:64-f80:128-n8:16:32:64-S128"
target triple = "x86_64-pc-linux-gnu"

%"class.std::ios_base::Init" = type { i8 }
%"class.std::basic_istream" = type { i32 (...)**, i64, %"class.std::basic_ios" }
%"class.std::basic_ios" = type { %"class.std::ios_base", %"class.std::basic_ostream"*, i8, i8, %"class.std::basic_streambuf"*, %"class.std::ctype"*, %"class.std::num_put"*, %"class.std::num_get"* }
%"class.std::ios_base" = type { i32 (...)**, i64, i64, i32, i32, i32, %"struct.std::ios_base::_Callback_list"*, %"struct.std::ios_base::_Words", [8 x %"struct.std::ios_base::_Words"], i32, %"struct.std::ios_base::_Words"*, %"class.std::locale" }
%"struct.std::ios_base::_Callback_list" = type { %"struct.std::ios_base::_Callback_list"*, void (i32, %"class.std::ios_base"*, i32)*, i32, i32 }
%"struct.std::ios_base::_Words" = type { i8*, i64 }
%"class.std::locale" = type { %"class.std::locale::_Impl"* }
%"class.std::locale::_Impl" = type { i32, %"class.std::locale::facet"**, i64, %"class.std::locale::facet"**, i8** }
%"class.std::locale::facet" = type <{ i32 (...)**, i32, [4 x i8] }>
%"class.std::basic_ostream" = type { i32 (...)**, %"class.std::basic_ios" }
%"class.std::basic_streambuf" = type { i32 (...)**, i8*, i8*, i8*, i8*, i8*, i8*, %"class.std::locale" }
%"class.std::ctype" = type <{ %"class.std::locale::facet.base", [4 x i8], %struct.__locale_struct*, i8, [7 x i8], i32*, i32*, i16*, i8, [256 x i8], [256 x i8], i8, [6 x i8] }>
%"class.std::locale::facet.base" = type <{ i32 (...)**, i32 }>
%struct.__locale_struct = type { [13 x %struct.__locale_data*], i16*, i32*, i32*, [13 x i8*] }
%struct.__locale_data = type opaque
%"class.std::num_put" = type { %"class.std::locale::facet.base", [4 x i8] }
%"class.std::num_get" = type { %"class.std::locale::facet.base", [4 x i8] }

@_ZStL8__ioinit = internal global %"class.std::ios_base::Init" zeroinitializer, align 1
@__dso_handle = external hidden global i8
@_ZSt3cin = external global %"class.std::basic_istream", align 8
@_ZSt4cout = external global %"class.std::basic_ostream", align 8
@llvm.global_ctors = appending global [1 x { i32, void ()*, i8* }] [{ i32, void ()*, i8* } { i32 65535, void ()* @_GLOBAL__sub_I_124.cpp, i8* null }]

declare void @_ZNSt8ios_base4InitC1Ev(%"class.std::ios_base::Init"* nonnull align 1 dereferenceable(1)) unnamed_addr #0

; Function Attrs: nounwind
declare void @_ZNSt8ios_base4InitD1Ev(%"class.std::ios_base::Init"* nonnull align 1 dereferenceable(1)) unnamed_addr #1

; Function Attrs: nofree nounwind
declare i32 @__cxa_atexit(void (i8*)*, i8*, i8*) local_unnamed_addr #2

; Function Attrs: mustprogress norecurse sspstrong uwtable
define dso_local i32 @main() local_unnamed_addr #3 {
  %1 = alloca [100 x i8], align 16
  %2 = getelementptr inbounds [100 x i8], [100 x i8]* %1, i64 0, i64 0
  call void @llvm.lifetime.start.p0i8(i64 100, i8* nonnull %2) #10
  call void @llvm.memset.p0i8.i64(i8* noundef nonnull align 16 dereferenceable(100) %2, i8 0, i64 100, i1 false)
  %3 = call nonnull align 8 dereferenceable(16) %"class.std::basic_istream"* @_ZNSi7getlineEPclc(%"class.std::basic_istream"* nonnull align 8 dereferenceable(16) @_ZSt3cin, i8* nonnull %2, i64 100, i8 signext 10)
  %4 = getelementptr inbounds [100 x i8], [100 x i8]* %1, i64 0, i64 99
  br label %5

5:                                                ; preds = %0, %60
  %6 = phi i64 [ 0, %0 ], [ %9, %60 ]
  %7 = sub nsw i64 3, %6
  %8 = sub nsw i64 98, %6
  %9 = add nuw nsw i64 %6, 1
  %10 = getelementptr inbounds [100 x i8], [100 x i8]* %1, i64 0, i64 %9
  %11 = getelementptr inbounds [100 x i8], [100 x i8]* %1, i64 0, i64 %6
  %12 = load i8, i8* %11, align 1, !tbaa !5
  %13 = icmp eq i8 %12, 32
  br i1 %13, label %14, label %60

14:                                               ; preds = %5
  %15 = icmp ult i64 %6, 99
  br i1 %15, label %16, label %57

16:                                               ; preds = %14
  %17 = and i64 %7, 3
  %18 = icmp eq i64 %17, 0
  %19 = icmp ult i64 %8, 3
  br label %20

20:                                               ; preds = %16, %54
  %21 = load i8, i8* %10, align 1, !tbaa !5
  %22 = icmp eq i8 %21, 32
  br i1 %22, label %23, label %60

23:                                               ; preds = %20
  br i1 %18, label %33, label %24

24:                                               ; preds = %23, %24
  %25 = phi i64 [ %27, %24 ], [ %6, %23 ]
  %26 = phi i64 [ %31, %24 ], [ %17, %23 ]
  %27 = add nuw nsw i64 %25, 1
  %28 = getelementptr inbounds [100 x i8], [100 x i8]* %1, i64 0, i64 %27
  %29 = load i8, i8* %28, align 1, !tbaa !5
  %30 = getelementptr inbounds [100 x i8], [100 x i8]* %1, i64 0, i64 %25
  store i8 %29, i8* %30, align 1, !tbaa !5
  store i8 0, i8* %4, align 1, !tbaa !5
  %31 = add i64 %26, -1
  %32 = icmp eq i64 %31, 0
  br i1 %32, label %33, label %24, !llvm.loop !8

33:                                               ; preds = %24, %23
  %34 = phi i64 [ %6, %23 ], [ %27, %24 ]
  br i1 %19, label %54, label %35

35:                                               ; preds = %33, %35
  %36 = phi i64 [ %49, %35 ], [ %34, %33 ]
  %37 = add nuw nsw i64 %36, 1
  %38 = getelementptr inbounds [100 x i8], [100 x i8]* %1, i64 0, i64 %37
  %39 = load i8, i8* %38, align 1, !tbaa !5
  %40 = getelementptr inbounds [100 x i8], [100 x i8]* %1, i64 0, i64 %36
  store i8 %39, i8* %40, align 1, !tbaa !5
  store i8 0, i8* %4, align 1, !tbaa !5
  %41 = add nuw nsw i64 %36, 2
  %42 = getelementptr inbounds [100 x i8], [100 x i8]* %1, i64 0, i64 %41
  %43 = load i8, i8* %42, align 1, !tbaa !5
  %44 = getelementptr inbounds [100 x i8], [100 x i8]* %1, i64 0, i64 %37
  store i8 %43, i8* %44, align 1, !tbaa !5
  store i8 0, i8* %4, align 1, !tbaa !5
  %45 = add nuw nsw i64 %36, 3
  %46 = getelementptr inbounds [100 x i8], [100 x i8]* %1, i64 0, i64 %45
  %47 = load i8, i8* %46, align 1, !tbaa !5
  %48 = getelementptr inbounds [100 x i8], [100 x i8]* %1, i64 0, i64 %41
  store i8 %47, i8* %48, align 1, !tbaa !5
  store i8 0, i8* %4, align 1, !tbaa !5
  %49 = add nuw nsw i64 %36, 4
  %50 = getelementptr inbounds [100 x i8], [100 x i8]* %1, i64 0, i64 %49
  %51 = load i8, i8* %50, align 1, !tbaa !5
  %52 = getelementptr inbounds [100 x i8], [100 x i8]* %1, i64 0, i64 %45
  store i8 %51, i8* %52, align 1, !tbaa !5
  store i8 0, i8* %4, align 1, !tbaa !5
  %53 = icmp eq i64 %49, 99
  br i1 %53, label %54, label %35, !llvm.loop !10

54:                                               ; preds = %35, %33
  %55 = load i8, i8* %11, align 1, !tbaa !5
  %56 = icmp eq i8 %55, 32
  br i1 %56, label %20, label %60, !llvm.loop !12

57:                                               ; preds = %14
  %58 = load i8, i8* %10, align 1, !tbaa !5
  %59 = icmp ne i8 %58, 32
  call void @llvm.assume(i1 %59)
  br label %60

60:                                               ; preds = %54, %20, %57, %5
  %61 = icmp eq i64 %9, 100
  br i1 %61, label %62, label %5, !llvm.loop !13

62:                                               ; preds = %60
  %63 = call i64 @strlen(i8* noundef nonnull dereferenceable(1) %2) #10
  %64 = call nonnull align 8 dereferenceable(8) %"class.std::basic_ostream"* @_ZSt16__ostream_insertIcSt11char_traitsIcEERSt13basic_ostreamIT_T0_ES6_PKS3_l(%"class.std::basic_ostream"* nonnull align 8 dereferenceable(8) @_ZSt4cout, i8* nonnull %2, i64 %63)
  %65 = load i8*, i8** bitcast (%"class.std::basic_ostream"* @_ZSt4cout to i8**), align 8, !tbaa !14
  %66 = getelementptr i8, i8* %65, i64 -24
  %67 = bitcast i8* %66 to i64*
  %68 = load i64, i64* %67, align 8
  %69 = add nsw i64 %68, 240
  %70 = getelementptr inbounds i8, i8* bitcast (%"class.std::basic_ostream"* @_ZSt4cout to i8*), i64 %69
  %71 = bitcast i8* %70 to %"class.std::ctype"**
  %72 = load %"class.std::ctype"*, %"class.std::ctype"** %71, align 8, !tbaa !16
  %73 = icmp eq %"class.std::ctype"* %72, null
  br i1 %73, label %74, label %75

74:                                               ; preds = %62
  call void @_ZSt16__throw_bad_castv() #11
  unreachable

75:                                               ; preds = %62
  %76 = getelementptr inbounds %"class.std::ctype", %"class.std::ctype"* %72, i64 0, i32 8
  %77 = load i8, i8* %76, align 8, !tbaa !20
  %78 = icmp eq i8 %77, 0
  br i1 %78, label %82, label %79

79:                                               ; preds = %75
  %80 = getelementptr inbounds %"class.std::ctype", %"class.std::ctype"* %72, i64 0, i32 9, i64 10
  %81 = load i8, i8* %80, align 1, !tbaa !5
  br label %88

82:                                               ; preds = %75
  call void @_ZNKSt5ctypeIcE13_M_widen_initEv(%"class.std::ctype"* nonnull align 8 dereferenceable(570) %72)
  %83 = bitcast %"class.std::ctype"* %72 to i8 (%"class.std::ctype"*, i8)***
  %84 = load i8 (%"class.std::ctype"*, i8)**, i8 (%"class.std::ctype"*, i8)*** %83, align 8, !tbaa !14
  %85 = getelementptr inbounds i8 (%"class.std::ctype"*, i8)*, i8 (%"class.std::ctype"*, i8)** %84, i64 6
  %86 = load i8 (%"class.std::ctype"*, i8)*, i8 (%"class.std::ctype"*, i8)** %85, align 8
  %87 = call signext i8 %86(%"class.std::ctype"* nonnull align 8 dereferenceable(570) %72, i8 signext 10)
  br label %88

88:                                               ; preds = %79, %82
  %89 = phi i8 [ %81, %79 ], [ %87, %82 ]
  %90 = call nonnull align 8 dereferenceable(8) %"class.std::basic_ostream"* @_ZNSo3putEc(%"class.std::basic_ostream"* nonnull align 8 dereferenceable(8) @_ZSt4cout, i8 signext %89)
  %91 = call nonnull align 8 dereferenceable(8) %"class.std::basic_ostream"* @_ZNSo5flushEv(%"class.std::basic_ostream"* nonnull align 8 dereferenceable(8) %90)
  call void @llvm.lifetime.end.p0i8(i64 100, i8* nonnull %2) #10
  ret i32 0
}

; Function Attrs: argmemonly mustprogress nofree nosync nounwind willreturn
declare void @llvm.lifetime.start.p0i8(i64 immarg, i8* nocapture) #4

; Function Attrs: argmemonly mustprogress nofree nounwind willreturn writeonly
declare void @llvm.memset.p0i8.i64(i8* nocapture writeonly, i8, i64, i1 immarg) #5

declare nonnull align 8 dereferenceable(16) %"class.std::basic_istream"* @_ZNSi7getlineEPclc(%"class.std::basic_istream"* nonnull align 8 dereferenceable(16), i8*, i64, i8 signext) local_unnamed_addr #0

; Function Attrs: argmemonly mustprogress nofree nosync nounwind willreturn
declare void @llvm.lifetime.end.p0i8(i64 immarg, i8* nocapture) #4

declare nonnull align 8 dereferenceable(8) %"class.std::basic_ostream"* @_ZSt16__ostream_insertIcSt11char_traitsIcEERSt13basic_ostreamIT_T0_ES6_PKS3_l(%"class.std::basic_ostream"* nonnull align 8 dereferenceable(8), i8*, i64) local_unnamed_addr #0

; Function Attrs: argmemonly mustprogress nofree nounwind readonly willreturn
declare i64 @strlen(i8* nocapture) local_unnamed_addr #6

declare nonnull align 8 dereferenceable(8) %"class.std::basic_ostream"* @_ZNSo3putEc(%"class.std::basic_ostream"* nonnull align 8 dereferenceable(8), i8 signext) local_unnamed_addr #0

declare nonnull align 8 dereferenceable(8) %"class.std::basic_ostream"* @_ZNSo5flushEv(%"class.std::basic_ostream"* nonnull align 8 dereferenceable(8)) local_unnamed_addr #0

; Function Attrs: noreturn
declare void @_ZSt16__throw_bad_castv() local_unnamed_addr #7

declare void @_ZNKSt5ctypeIcE13_M_widen_initEv(%"class.std::ctype"* nonnull align 8 dereferenceable(570)) local_unnamed_addr #0

; Function Attrs: sspstrong uwtable
define internal void @_GLOBAL__sub_I_124.cpp() #8 section ".text.startup" {
  tail call void @_ZNSt8ios_base4InitC1Ev(%"class.std::ios_base::Init"* nonnull align 1 dereferenceable(1) @_ZStL8__ioinit)
  %1 = tail call i32 @__cxa_atexit(void (i8*)* bitcast (void (%"class.std::ios_base::Init"*)* @_ZNSt8ios_base4InitD1Ev to void (i8*)*), i8* getelementptr inbounds (%"class.std::ios_base::Init", %"class.std::ios_base::Init"* @_ZStL8__ioinit, i64 0, i32 0), i8* nonnull @__dso_handle) #10
  ret void
}

; Function Attrs: inaccessiblememonly nofree nosync nounwind willreturn
declare void @llvm.assume(i1 noundef) #9


!llvm.module.flags = !{!0, !1, !2, !3}
!llvm.ident = !{!4}

!0 = !{i32 1, !"wchar_size", i32 4}
!1 = !{i32 7, !"PIC Level", i32 2}
!2 = !{i32 7, !"PIE Level", i32 2}
!3 = !{i32 7, !"uwtable", i32 1}
!4 = !{!"clang version 13.0.0"}
!5 = !{!6, !6, i64 0}
!6 = !{!"omnipotent char", !7, i64 0}
!7 = !{!"Simple C++ TBAA"}
!8 = distinct !{!8, !9}
!9 = !{!"llvm.loop.unroll.disable"}
!10 = distinct !{!10, !11}
!11 = !{!"llvm.loop.mustprogress"}
!12 = distinct !{!12, !11}
!13 = distinct !{!13, !11}
!14 = !{!15, !15, i64 0}
!15 = !{!"vtable pointer", !7, i64 0}
!16 = !{!17, !18, i64 240}
!17 = !{!"_ZTSSt9basic_iosIcSt11char_traitsIcEE", !18, i64 216, !6, i64 224, !19, i64 225, !18, i64 232, !18, i64 240, !18, i64 248, !18, i64 256}
!18 = !{!"any pointer", !6, i64 0}
!19 = !{!"bool", !6, i64 0}
!20 = !{!21, !6, i64 56}
!21 = !{!"_ZTSSt5ctypeIcE", !18, i64 16, !19, i64 24, !18, i64 32, !18, i64 40, !18, i64 48, !6, i64 56, !6, i64 57, !6, i64 313, !6, i64 569}
